target datalayout = "e-m:e-p270:32:32-p271:32:32-p272:64:64-i64:64-i128:128-f80:128-n8:16:32:64-S128"
target triple = "x86_64-pc-linux-gnu"

@tty = external global ptr, align 8
@PrintCompilation = external global i8, align 1
@.str.77 = private unnamed_addr constant [68 x i8] c"some methods may not be compiled because metaspace is out of memory\00", align 1
@.str.78 = private unnamed_addr constant [30 x i8] c"COMPILE PROFILING SKIPPED: %s\00", align 1
@_ZN14CompilationLog4_logE = external global ptr, align 8

; Function Attrs: mustprogress nounwind uwtable
define linkonce_odr hidden noundef ptr @_ZN14CompilationLog3logEv() #1 comdat align 2 {
  %1 = load ptr, ptr @_ZN14CompilationLog4_logE, align 8
  ret ptr %1
}

; Function Attrs: mustprogress nounwind uwtable
define hidden void @_ZN13CompileBroker21log_metaspace_failureEv() #1 align 2 {
  %1 = alloca ptr, align 8
  store ptr @.str.77, ptr %1, align 8
  %2 = call noundef ptr @_ZN14CompilationLog3logEv()
  %3 = icmp ne ptr %2, null
  br i1 %3, label %4, label %7

4:                                                ; preds = %0
  %5 = call noundef ptr @_ZN14CompilationLog3logEv()
  %6 = load ptr, ptr %1, align 8
  call void @_ZN14CompilationLog21log_metaspace_failureEPKc(ptr noundef nonnull align 8 dereferenceable(160) %5, ptr noundef %6)
  br label %7

7:                                                ; preds = %4, %0
  %8 = load i8, ptr @PrintCompilation, align 1
  %9 = trunc i8 %8 to i1
  br i1 %9, label %10, label %13

10:                                               ; preds = %7
  %11 = load ptr, ptr @tty, align 8
  %12 = load ptr, ptr %1, align 8
  call void (ptr, ptr, ...) @_ZN12outputStream8print_crEPKcz(ptr noundef nonnull align 8 dereferenceable(56) %11, ptr noundef @.str.78, ptr noundef %12)
  br label %13

13:                                               ; preds = %10, %7
  ret void
}