; Function Attrs: mustprogress nounwind uwtable
define hidden void @_ZN13CompileBroker21log_metaspace_failureEv() local_unnamed_addr #0 align 2 {
  %1 = load ptr, ptr @_ZN14CompilationLog4_logE, align 8
  %.not = icmp eq ptr %1, null
  br i1 %.not, label %3, label %2

2:                                                ; preds = %0
  tail call void @_ZN14CompilationLog21log_metaspace_failureEPKc(ptr noundef nonnull align 8 dereferenceable(160) %1, ptr noundef nonnull @.str.77) #20
  br label %3

3:                                                ; preds = %2, %0
  %4 = load i8, ptr @PrintCompilation, align 1
  %5 = trunc i8 %4 to i1
  br i1 %5, label %6, label %8

6:                                                ; preds = %3
  %7 = load ptr, ptr @tty, align 8
  tail call void (ptr, ptr, ...) @_ZN12outputStream8print_crEPKcz(ptr noundef nonnull align 8 dereferenceable(56) %7, ptr noundef nonnull @.str.78, ptr noundef nonnull @.str.77) #20
  br label %8

8:                                                ; preds = %6, %3
  ret void
}